; Function Attrs: null_pointer_is_valid sspstrong uwtable
define hidden void @key_exchange_calc_key(i32 noundef %0) local_unnamed_addr #6 {
  %2 = alloca [16 x i8], align 16
  br label %.lr.ph.split.i

.lr.ph.split.i:                                   ; preds = %9, %1
  %indvars.iv.i = phi i64 [ %indvars.iv.next.i, %9 ], [ 0, %1 ]
  %3 = getelementptr [128 x %struct.addr_entry_s], ptr @addr_table, i64 0, i64 %indvars.iv.i
  %4 = getelementptr inbounds nuw i8, ptr %3, i64 10
  %5 = load i8, ptr %4, align 2, !range !8, !noundef !9
  %6 = trunc nuw i8 %5 to i1
  br i1 %6, label %7, label %9

7:                                                ; preds = %.lr.ph.split.i
  %bcmp.i = tail call i32 @bcmp(ptr noundef dereferenceable(8) %3, ptr noundef nonnull readonly dereferenceable(8) getelementptr inbounds nuw (i8, ptr @key_exchange_context, i64 16), i64 8)
  %8 = icmp eq i32 %bcmp.i, 0
  br i1 %8, label %rf4ce_addr_table_get_addr_entry_by_ieee.exit, label %9

9:                                                ; preds = %7, %.lr.ph.split.i
  %indvars.iv.next.i = add nuw nsw i64 %indvars.iv.i, 1
  %exitcond.not.i = icmp eq i64 %indvars.iv.next.i, 128
  br i1 %exitcond.not.i, label %rf4ce_addr_table_get_addr_entry_by_ieee.exit, label %.lr.ph.split.i, !llvm.loop !10

rf4ce_addr_table_get_addr_entry_by_ieee.exit:     ; preds = %7, %9
  %.07.i = phi ptr [ null, %9 ], [ %3, %7 ]
  br label %.lr.ph.split.i14

.lr.ph.split.i14:                                 ; preds = %16, %rf4ce_addr_table_get_addr_entry_by_ieee.exit
  %indvars.iv.i15 = phi i64 [ %indvars.iv.next.i16, %16 ], [ 0, %rf4ce_addr_table_get_addr_entry_by_ieee.exit ]
  %10 = getelementptr [128 x %struct.addr_entry_s], ptr @addr_table, i64 0, i64 %indvars.iv.i15
  %11 = getelementptr inbounds nuw i8, ptr %10, i64 10
  %12 = load i8, ptr %11, align 2, !range !8, !noundef !9
  %13 = trunc nuw i8 %12 to i1
  br i1 %13, label %14, label %16

14:                                               ; preds = %.lr.ph.split.i14
  %bcmp.i19 = tail call i32 @bcmp(ptr noundef dereferenceable(8) %10, ptr noundef nonnull readonly dereferenceable(8) getelementptr inbounds nuw (i8, ptr @key_exchange_context, i64 24), i64 8)
  %15 = icmp eq i32 %bcmp.i19, 0
  br i1 %15, label %rf4ce_addr_table_get_addr_entry_by_ieee.exit20, label %16

16:                                               ; preds = %14, %.lr.ph.split.i14
  %indvars.iv.next.i16 = add nuw nsw i64 %indvars.iv.i15, 1
  %exitcond.not.i17 = icmp eq i64 %indvars.iv.next.i16, 128
  br i1 %exitcond.not.i17, label %rf4ce_addr_table_get_addr_entry_by_ieee.exit20, label %.lr.ph.split.i14, !llvm.loop !10

rf4ce_addr_table_get_addr_entry_by_ieee.exit20:   ; preds = %14, %16
  %.07.i18 = phi ptr [ null, %16 ], [ %10, %14 ]
  call void @llvm.lifetime.start.p0(i64 16, ptr nonnull %2) #17
  br label %17

17:                                               ; preds = %rf4ce_addr_table_get_addr_entry_by_ieee.exit20, %51
  %indvars.iv = phi i64 [ 0, %rf4ce_addr_table_get_addr_entry_by_ieee.exit20 ], [ %indvars.iv.next, %51 ]
  %18 = getelementptr [64 x %struct.vendor_secret_entry_s], ptr @vendor_secret_storage, i64 0, i64 %indvars.iv
  %19 = getelementptr inbounds nuw i8, ptr %18, i64 16
  %20 = load i8, ptr %19, align 1, !range !8, !noundef !9
  %21 = trunc nuw i8 %20 to i1
  br i1 %21, label %22, label %51

22:                                               ; preds = %17
  %23 = call fastcc zeroext i1 @key_exchange_calc_key_cont(ptr noundef %18, i32 noundef %0, i1 noundef zeroext true, ptr noundef nonnull %2)
  br i1 %23, label %.thread.preheader, label %24

24:                                               ; preds = %22
  %25 = call fastcc zeroext i1 @key_exchange_calc_key_cont(ptr noundef %18, i32 noundef %0, i1 noundef zeroext false, ptr noundef nonnull %2)
  br i1 %25, label %.thread.preheader, label %51

.thread.preheader:                                ; preds = %22, %24
  br label %.thread

.thread:                                          ; preds = %.thread.preheader, %36
  %indvars.iv.i.i = phi i64 [ %indvars.iv.next.i.i, %36 ], [ 0, %.thread.preheader ]
  %26 = getelementptr [64 x %struct.nwk_key_entry_s], ptr @nwk_key_storage, i64 0, i64 %indvars.iv.i.i
  %27 = getelementptr inbounds nuw i8, ptr %26, i64 33
  %28 = load i8, ptr %27, align 1, !range !8, !noundef !9
  %29 = trunc nuw i8 %28 to i1
  br i1 %29, label %30, label %36

30:                                               ; preds = %.thread
  %31 = getelementptr inbounds nuw i8, ptr %26, i64 32
  %32 = load i8, ptr %31, align 8, !range !8, !noundef !9
  %33 = icmp eq i8 %32, 0
  br i1 %33, label %34, label %36

34:                                               ; preds = %30
  %bcmp.i.i = call i32 @bcmp(ptr noundef dereferenceable(16) %26, ptr noundef nonnull readonly dereferenceable(16) %2, i64 16)
  %35 = icmp eq i32 %bcmp.i.i, 0
  br i1 %35, label %nwk_key_storage_get_entry_by_key.exit.i, label %36

36:                                               ; preds = %34, %30, %.thread
  %indvars.iv.next.i.i = add nuw nsw i64 %indvars.iv.i.i, 1
  %exitcond.not.i.i = icmp eq i64 %indvars.iv.next.i.i, 64
  br i1 %exitcond.not.i.i, label %.preheader.i.preheader, label %.thread, !llvm.loop !13

nwk_key_storage_get_entry_by_key.exit.i:          ; preds = %34
  %37 = icmp eq ptr %26, null
  br i1 %37, label %.preheader.i.preheader, label %nwk_key_storage_add_entry.exit

.preheader.i.preheader:                           ; preds = %36, %nwk_key_storage_get_entry_by_key.exit.i
  br label %.preheader.i

38:                                               ; preds = %.preheader.i
  %indvars.iv.next.i22 = add nuw nsw i64 %indvars.iv.i21, 1
  %exitcond.not.i23 = icmp eq i64 %indvars.iv.next.i22, 64
  br i1 %exitcond.not.i23, label %nwk_key_storage_add_entry.exit, label %.preheader.i, !llvm.loop !14

.preheader.i:                                     ; preds = %.preheader.i.preheader, %38
  %indvars.iv.i21 = phi i64 [ %indvars.iv.next.i22, %38 ], [ 0, %.preheader.i.preheader ]
  %39 = getelementptr [64 x %struct.nwk_key_entry_s], ptr @nwk_key_storage, i64 0, i64 %indvars.iv.i21
  %40 = getelementptr inbounds nuw i8, ptr %39, i64 33
  %41 = load i8, ptr %40, align 1, !range !8, !noundef !9
  %42 = trunc nuw i8 %41 to i1
  br i1 %42, label %38, label %43

43:                                               ; preds = %.preheader.i
  %44 = getelementptr inbounds nuw i8, ptr %39, i64 33
  %.idx.neg.i = mul nsw i64 %indvars.iv.i21, -40
  %45 = add nsw i64 %.idx.neg.i, 2560
  %46 = call ptr @__memcpy_chk(ptr noundef %39, ptr noundef nonnull readonly %2, i64 noundef 16, i64 noundef %45) #17, !alias.scope !31
  %47 = getelementptr inbounds nuw i8, ptr %39, i64 16
  store ptr %.07.i, ptr %47, align 8
  %48 = getelementptr inbounds nuw i8, ptr %39, i64 24
  store ptr %.07.i18, ptr %48, align 8
  %49 = getelementptr inbounds nuw i8, ptr %39, i64 32
  store i8 0, ptr %49, align 8
  store i8 1, ptr %44, align 1
  %50 = getelementptr inbounds nuw i8, ptr %39, i64 34
  store i8 0, ptr %50, align 2
  br label %nwk_key_storage_add_entry.exit

51:                                               ; preds = %24, %17
  %indvars.iv.next = add nuw nsw i64 %indvars.iv, 1
  %exitcond.not = icmp eq i64 %indvars.iv.next, 64
  br i1 %exitcond.not, label %nwk_key_storage_add_entry.exit, label %17, !llvm.loop !35

nwk_key_storage_add_entry.exit:                   ; preds = %51, %38, %43, %nwk_key_storage_get_entry_by_key.exit.i
  call void @llvm.lifetime.end.p0(i64 16, ptr nonnull %2) #17
  ret void
}